; Function Attrs: null_pointer_is_valid sspstrong uwtable
define internal noundef i32 @cigi3_add_line_of_sight_response(ptr noundef %0, ptr readnone captures(none) %1, ptr noundef %2, ptr readnone captures(none) %3) #0 {
  %5 = load i32, ptr @hf_cigi3_line_of_sight_response_los_id, align 4
  %.b35 = load i1, ptr @cigi_byte_order, align 4
  %6 = select i1 %.b35, i32 -2147483648, i32 0
  %7 = tail call ptr @proto_tree_add_item(ptr noundef %2, i32 noundef %5, ptr noundef %0, i32 noundef 0, i32 noundef 2, i32 noundef %6)
  %8 = load i32, ptr @hf_cigi3_line_of_sight_response_valid, align 4
  %.b34 = load i1, ptr @cigi_byte_order, align 4
  %9 = select i1 %.b34, i32 -2147483648, i32 0
  %10 = tail call ptr @proto_tree_add_item(ptr noundef %2, i32 noundef %8, ptr noundef %0, i32 noundef 2, i32 noundef 1, i32 noundef %9)
  %11 = load i32, ptr @hf_cigi3_line_of_sight_response_entity_id_valid, align 4
  %.b33 = load i1, ptr @cigi_byte_order, align 4
  %12 = select i1 %.b33, i32 -2147483648, i32 0
  %13 = tail call ptr @proto_tree_add_item(ptr noundef %2, i32 noundef %11, ptr noundef %0, i32 noundef 2, i32 noundef 1, i32 noundef %12)
  %14 = load i32, ptr @hf_cigi3_line_of_sight_response_visible, align 4
  %.b32 = load i1, ptr @cigi_byte_order, align 4
  %15 = select i1 %.b32, i32 -2147483648, i32 0
  %16 = tail call ptr @proto_tree_add_item(ptr noundef %2, i32 noundef %14, ptr noundef %0, i32 noundef 2, i32 noundef 1, i32 noundef %15)
  %17 = load i32, ptr @cigi_minor_version, align 4
  %18 = icmp sgt i32 %17, 1
  br i1 %18, label %19, label %23

19:                                               ; preds = %4
  %20 = load i32, ptr @hf_cigi3_2_line_of_sight_response_host_frame_number_lsn, align 4
  %.b31 = load i1, ptr @cigi_byte_order, align 4
  %21 = select i1 %.b31, i32 -2147483648, i32 0
  %22 = tail call ptr @proto_tree_add_item(ptr noundef %2, i32 noundef %20, ptr noundef %0, i32 noundef 2, i32 noundef 1, i32 noundef %21)
  br label %23

23:                                               ; preds = %19, %4
  %24 = load i32, ptr @hf_cigi3_line_of_sight_response_count, align 4
  %.b30 = load i1, ptr @cigi_byte_order, align 4
  %25 = select i1 %.b30, i32 -2147483648, i32 0
  %26 = tail call ptr @proto_tree_add_item(ptr noundef %2, i32 noundef %24, ptr noundef %0, i32 noundef 3, i32 noundef 1, i32 noundef %25)
  %27 = load i32, ptr @hf_cigi3_line_of_sight_response_entity_id, align 4
  %.b29 = load i1, ptr @cigi_byte_order, align 4
  %28 = select i1 %.b29, i32 -2147483648, i32 0
  %29 = tail call ptr @proto_tree_add_item(ptr noundef %2, i32 noundef %27, ptr noundef %0, i32 noundef 4, i32 noundef 2, i32 noundef %28)
  %30 = load i32, ptr @hf_cigi3_line_of_sight_response_range, align 4
  %.b = load i1, ptr @cigi_byte_order, align 4
  %31 = select i1 %.b, i32 -2147483648, i32 0
  %32 = tail call ptr @proto_tree_add_item(ptr noundef %2, i32 noundef %30, ptr noundef %0, i32 noundef 6, i32 noundef 8, i32 noundef %31)
  ret i32 14
}